; Function Attrs: nounwind uwtable
define i32 @ASN1_ENUMERATED_set_int64(ptr noundef %0, i64 noundef %1) local_unnamed_addr #0 {
  %3 = alloca [8 x i8], align 1
  call void @llvm.lifetime.start.p0(i64 8, ptr nonnull %3) #6
  %4 = icmp slt i64 %1, 0
  br i1 %4, label %5, label %.preheader.i

5:                                                ; preds = %2
  %6 = sub i64 0, %1
  br label %7

7:                                                ; preds = %7, %5
  %.04.i.i = phi i64 [ %6, %5 ], [ %11, %7 ]
  %.0.i.i = phi i64 [ 8, %5 ], [ %9, %7 ]
  %8 = trunc i64 %.04.i.i to i8
  %9 = add nsw i64 %.0.i.i, -1
  %10 = getelementptr inbounds nuw i8, ptr %3, i64 %9
  store i8 %8, ptr %10, align 1, !tbaa !13
  %11 = lshr i64 %.04.i.i, 8
  %.not.i.i = icmp ult i64 %.04.i.i, 256
  br i1 %.not.i.i, label %asn1_string_set_int64.exit, label %7, !llvm.loop !24

.preheader.i:                                     ; preds = %2, %.preheader.i
  %.04.i10.i = phi i64 [ %15, %.preheader.i ], [ %1, %2 ]
  %.0.i11.i = phi i64 [ %13, %.preheader.i ], [ 8, %2 ]
  %12 = trunc i64 %.04.i10.i to i8
  %13 = add nsw i64 %.0.i11.i, -1
  %14 = getelementptr inbounds nuw i8, ptr %3, i64 %13
  store i8 %12, ptr %14, align 1, !tbaa !13
  %15 = lshr i64 %.04.i10.i, 8
  %.not.i12.i = icmp samesign ult i64 %.04.i10.i, 256
  br i1 %.not.i12.i, label %asn1_string_set_int64.exit, label %.preheader.i, !llvm.loop !24

asn1_string_set_int64.exit:                       ; preds = %.preheader.i, %7
  %storemerge.i = phi i32 [ 266, %7 ], [ 10, %.preheader.i ]
  %.0.i = phi i64 [ %9, %7 ], [ %13, %.preheader.i ]
  %16 = getelementptr inbounds nuw i8, ptr %0, i64 4
  store i32 %storemerge.i, ptr %16, align 4, !tbaa !3
  %17 = getelementptr inbounds nuw i8, ptr %3, i64 %.0.i
  %18 = trunc i64 %.0.i to i32
  %19 = sub i32 8, %18
  %20 = call i32 @ASN1_STRING_set(ptr noundef %0, ptr noundef nonnull %17, i32 noundef %19) #6
  call void @llvm.lifetime.end.p0(i64 8, ptr nonnull %3) #6
  ret i32 %20
}